target datalayout = "e-m:e-p270:32:32-p271:32:32-p272:64:64-i64:64-i128:128-f80:128-n8:16:32:64-S128"
target triple = "x86_64-unknown-linux-gnu"

; Function Attrs: mustprogress uwtable
define linkonce_odr void @_ZN6icu_758Calendar7setTimeEdR10UErrorCode(ptr noundef nonnull align 8 dereferenceable(618) %this, double noundef %date, ptr noundef nonnull align 4 dereferenceable(4) %status) #1 comdat align 2 {
entry:
  %this.addr = alloca ptr, align 8
  %date.addr = alloca double, align 8
  %status.addr = alloca ptr, align 8
  store ptr %this, ptr %this.addr, align 8
  store double %date, ptr %date.addr, align 8
  store ptr %status, ptr %status.addr, align 8
  %this1 = load ptr, ptr %this.addr, align 8
  %0 = load double, ptr %date.addr, align 8
  %1 = load ptr, ptr %status.addr, align 8
  call void @_ZN6icu_758Calendar15setTimeInMillisEdR10UErrorCode(ptr noundef nonnull align 8 dereferenceable(618) %this1, double noundef %0, ptr noundef nonnull align 4 dereferenceable(4) %1)
  ret void
}

; Function Attrs: mustprogress nounwind uwtable
define internal noundef signext i8 @_ZL9U_FAILURE10UErrorCode(i32 noundef %code) #0 {
entry:
  %code.addr = alloca i32, align 4
  store i32 %code, ptr %code.addr, align 4
  %0 = load i32, ptr %code.addr, align 4
  %cmp = icmp sgt i32 %0, 0
  %conv = zext i1 %cmp to i8
  ret i8 %conv
}

; Function Attrs: mustprogress uwtable
define void @ucal_setMillis_75(ptr noundef %cal, double noundef %dateTime, ptr noundef %status) #1 {
entry:
  %cal.addr = alloca ptr, align 8
  %dateTime.addr = alloca double, align 8
  %status.addr = alloca ptr, align 8
  store ptr %cal, ptr %cal.addr, align 8
  store double %dateTime, ptr %dateTime.addr, align 8
  store ptr %status, ptr %status.addr, align 8
  %0 = load ptr, ptr %status.addr, align 8
  %1 = load i32, ptr %0, align 4
  %call = call noundef signext i8 @_ZL9U_FAILURE10UErrorCode(i32 noundef %1)
  %tobool = icmp ne i8 %call, 0
  br i1 %tobool, label %if.then, label %if.end

if.then:                                          ; preds = %entry
  br label %return

if.end:                                           ; preds = %entry
  %2 = load ptr, ptr %cal.addr, align 8
  %3 = load double, ptr %dateTime.addr, align 8
  %4 = load ptr, ptr %status.addr, align 8
  call void @_ZN6icu_758Calendar7setTimeEdR10UErrorCode(ptr noundef nonnull align 8 dereferenceable(618) %2, double noundef %3, ptr noundef nonnull align 4 dereferenceable(4) %4)
  br label %return

return:                                           ; preds = %if.end, %if.then
  ret void
}